target datalayout = "e-m:e-p270:32:32-p271:32:32-p272:64:64-i64:64-i128:128-f80:128-n8:16:32:64-S128"
target triple = "x86_64-pc-linux-gnu"

%struct.Aig_Tsi_t_ = type { ptr, i32, ptr, ptr, ptr, i32 }
%struct.Aig_Man_t_ = type { ptr, ptr, ptr, ptr, ptr, ptr, ptr, %struct.Aig_Obj_t_, i32, i32, i32, i32, i32, i32, [7 x i32], i32, ptr, i32, ptr, i32, ptr, i32, i32, i32, ptr, i32, i32, i32, i32, i32, ptr, ptr, i32, ptr, ptr, i32, ptr, ptr, i32, i32, i32, ptr, ptr, ptr, ptr, ptr, ptr, ptr, ptr, ptr, ptr, ptr, ptr, ptr, ptr, i32, ptr, ptr, ptr, ptr, i32, i64, i64, i64, ptr, ptr }
%struct.Aig_Obj_t_ = type { %union.anon, ptr, ptr, i64, i32, i32, %union.anon.0 }
%union.anon = type { ptr }
%union.anon.0 = type { ptr }
%struct.Vec_Ptr_t_ = type { i32, i32, ptr }

; Function Attrs: inlinehint nounwind uwtable
define internal i32 @Aig_ManCiNum(ptr noundef %0) #4 {
  %2 = alloca ptr, align 8
  store ptr %0, ptr %2, align 8, !tbaa !3
  %3 = load ptr, ptr %2, align 8, !tbaa !3
  %4 = getelementptr inbounds nuw %struct.Aig_Man_t_, ptr %3, i32 0, i32 14
  %5 = getelementptr inbounds [7 x i32], ptr %4, i64 0, i64 2
  %6 = load i32, ptr %5, align 8, !tbaa !21
  ret i32 %6
}

; Function Attrs: inlinehint nounwind uwtable
define internal ptr @Vec_PtrEntry(ptr noundef %0, i32 noundef %1) #4 {
  %3 = alloca ptr, align 8
  %4 = alloca i32, align 4
  store ptr %0, ptr %3, align 8, !tbaa !33
  store i32 %1, ptr %4, align 4, !tbaa !21
  %5 = load ptr, ptr %3, align 8, !tbaa !33
  %6 = getelementptr inbounds nuw %struct.Vec_Ptr_t_, ptr %5, i32 0, i32 2
  %7 = load ptr, ptr %6, align 8, !tbaa !37
  %8 = load i32, ptr %4, align 4, !tbaa !21
  %9 = sext i32 %8 to i64
  %10 = getelementptr inbounds ptr, ptr %7, i64 %9
  %11 = load ptr, ptr %10, align 8, !tbaa !44
  ret ptr %11
}

; Function Attrs: inlinehint nounwind uwtable
define internal i32 @Aig_ManCoNum(ptr noundef %0) #4 {
  %2 = alloca ptr, align 8
  store ptr %0, ptr %2, align 8, !tbaa !3
  %3 = load ptr, ptr %2, align 8, !tbaa !3
  %4 = getelementptr inbounds nuw %struct.Aig_Man_t_, ptr %3, i32 0, i32 14
  %5 = getelementptr inbounds [7 x i32], ptr %4, i64 0, i64 3
  %6 = load i32, ptr %5, align 4, !tbaa !21
  ret i32 %6
}

; Function Attrs: inlinehint nounwind uwtable
define internal i32 @Abc_InfoHasBit(ptr noundef %0, i32 noundef %1) #4 {
  %3 = alloca ptr, align 8
  %4 = alloca i32, align 4
  store ptr %0, ptr %3, align 8, !tbaa !41
  store i32 %1, ptr %4, align 4, !tbaa !21
  %5 = load ptr, ptr %3, align 8, !tbaa !41
  %6 = load i32, ptr %4, align 4, !tbaa !21
  %7 = ashr i32 %6, 5
  %8 = sext i32 %7 to i64
  %9 = getelementptr inbounds i32, ptr %5, i64 %8
  %10 = load i32, ptr %9, align 4, !tbaa !21
  %11 = load i32, ptr %4, align 4, !tbaa !21
  %12 = and i32 %11, 31
  %13 = shl i32 1, %12
  %14 = and i32 %10, %13
  %15 = icmp ugt i32 %14, 0
  %16 = zext i1 %15 to i32
  ret i32 %16
}

; Function Attrs: inlinehint nounwind uwtable
define internal ptr @Aig_ManLo(ptr noundef %0, i32 noundef %1) #4 {
  %3 = alloca ptr, align 8
  %4 = alloca i32, align 4
  store ptr %0, ptr %3, align 8, !tbaa !3
  store i32 %1, ptr %4, align 4, !tbaa !21
  %5 = load ptr, ptr %3, align 8, !tbaa !3
  %6 = getelementptr inbounds nuw %struct.Aig_Man_t_, ptr %5, i32 0, i32 2
  %7 = load ptr, ptr %6, align 8, !tbaa !49
  %8 = load ptr, ptr %3, align 8, !tbaa !3
  %9 = call i32 @Aig_ManCiNum(ptr noundef %8)
  %10 = load ptr, ptr %3, align 8, !tbaa !3
  %11 = call i32 @Aig_ManRegNum(ptr noundef %10)
  %12 = sub nsw i32 %9, %11
  %13 = load i32, ptr %4, align 4, !tbaa !21
  %14 = add nsw i32 %12, %13
  %15 = call ptr @Vec_PtrEntry(ptr noundef %7, i32 noundef %14)
  ret ptr %15
}

; Function Attrs: inlinehint nounwind uwtable
define internal ptr @Aig_ManLi(ptr noundef %0, i32 noundef %1) #4 {
  %3 = alloca ptr, align 8
  %4 = alloca i32, align 4
  store ptr %0, ptr %3, align 8, !tbaa !3
  store i32 %1, ptr %4, align 4, !tbaa !21
  %5 = load ptr, ptr %3, align 8, !tbaa !3
  %6 = getelementptr inbounds nuw %struct.Aig_Man_t_, ptr %5, i32 0, i32 3
  %7 = load ptr, ptr %6, align 8, !tbaa !48
  %8 = load ptr, ptr %3, align 8, !tbaa !3
  %9 = call i32 @Aig_ManCoNum(ptr noundef %8)
  %10 = load ptr, ptr %3, align 8, !tbaa !3
  %11 = call i32 @Aig_ManRegNum(ptr noundef %10)
  %12 = sub nsw i32 %9, %11
  %13 = load i32, ptr %4, align 4, !tbaa !21
  %14 = add nsw i32 %12, %13
  %15 = call ptr @Vec_PtrEntry(ptr noundef %7, i32 noundef %14)
  ret ptr %15
}

; Function Attrs: inlinehint nounwind uwtable
define internal i32 @Aig_ManRegNum(ptr noundef %0) #4 {
  %2 = alloca ptr, align 8
  store ptr %0, ptr %2, align 8, !tbaa !3
  %3 = load ptr, ptr %2, align 8, !tbaa !3
  %4 = getelementptr inbounds nuw %struct.Aig_Man_t_, ptr %3, i32 0, i32 8
  %5 = load i32, ptr %4, align 8, !tbaa !22
  ret i32 %5
}

; Function Attrs: nounwind uwtable
define i32 @Aig_TsiStateCount(ptr noundef %0, ptr noundef %1) #0 {
  %3 = alloca ptr, align 8
  %4 = alloca ptr, align 8
  %5 = alloca ptr, align 8
  %6 = alloca ptr, align 8
  %7 = alloca i32, align 4
  %8 = alloca i32, align 4
  %9 = alloca i32, align 4
  store ptr %0, ptr %3, align 8, !tbaa !8
  store ptr %1, ptr %4, align 8, !tbaa !41
  call void @llvm.lifetime.start.p0(i64 8, ptr %5) #9
  call void @llvm.lifetime.start.p0(i64 8, ptr %6) #9
  call void @llvm.lifetime.start.p0(i64 4, ptr %7) #9
  call void @llvm.lifetime.start.p0(i64 4, ptr %8) #9
  call void @llvm.lifetime.start.p0(i64 4, ptr %9) #9
  store i32 0, ptr %9, align 4, !tbaa !21
  store i32 0, ptr %7, align 4, !tbaa !21
  br label %10

10:                                               ; preds = %53, %2
  %11 = load i32, ptr %7, align 4, !tbaa !21
  %12 = load ptr, ptr %3, align 8, !tbaa !8
  %13 = getelementptr inbounds nuw %struct.Aig_Tsi_t_, ptr %12, i32 0, i32 0
  %14 = load ptr, ptr %13, align 8, !tbaa !10
  %15 = call i32 @Aig_ManRegNum(ptr noundef %14)
  %16 = icmp slt i32 %11, %15
  br i1 %16, label %17, label %29

17:                                               ; preds = %10
  %18 = load ptr, ptr %3, align 8, !tbaa !8
  %19 = getelementptr inbounds nuw %struct.Aig_Tsi_t_, ptr %18, i32 0, i32 0
  %20 = load ptr, ptr %19, align 8, !tbaa !10
  %21 = load i32, ptr %7, align 4, !tbaa !21
  %22 = call ptr @Aig_ManLi(ptr noundef %20, i32 noundef %21)
  store ptr %22, ptr %5, align 8, !tbaa !46
  br i1 true, label %23, label %29

23:                                               ; preds = %17
  %24 = load ptr, ptr %3, align 8, !tbaa !8
  %25 = getelementptr inbounds nuw %struct.Aig_Tsi_t_, ptr %24, i32 0, i32 0
  %26 = load ptr, ptr %25, align 8, !tbaa !10
  %27 = load i32, ptr %7, align 4, !tbaa !21
  %28 = call ptr @Aig_ManLo(ptr noundef %26, i32 noundef %27)
  store ptr %28, ptr %6, align 8, !tbaa !46
  br label %29

29:                                               ; preds = %23, %17, %10
  %30 = phi i1 [ false, %17 ], [ false, %10 ], [ true, %23 ]
  br i1 %30, label %31, label %56

31:                                               ; preds = %29
  %32 = load ptr, ptr %4, align 8, !tbaa !41
  %33 = load i32, ptr %7, align 4, !tbaa !21
  %34 = mul nsw i32 2, %33
  %35 = add nsw i32 %34, 1
  %36 = call i32 @Abc_InfoHasBit(ptr noundef %32, i32 noundef %35)
  %37 = shl i32 %36, 1
  %38 = load ptr, ptr %4, align 8, !tbaa !41
  %39 = load i32, ptr %7, align 4, !tbaa !21
  %40 = mul nsw i32 2, %39
  %41 = call i32 @Abc_InfoHasBit(ptr noundef %38, i32 noundef %40)
  %42 = or i32 %37, %41
  store i32 %42, ptr %8, align 4, !tbaa !21
  %43 = load i32, ptr %8, align 4, !tbaa !21
  %44 = icmp eq i32 %43, 1
  br i1 %44, label %48, label %45

45:                                               ; preds = %31
  %46 = load i32, ptr %8, align 4, !tbaa !21
  %47 = icmp eq i32 %46, 2
  br label %48

48:                                               ; preds = %45, %31
  %49 = phi i1 [ true, %31 ], [ %47, %45 ]
  %50 = zext i1 %49 to i32
  %51 = load i32, ptr %9, align 4, !tbaa !21
  %52 = add nsw i32 %51, %50
  store i32 %52, ptr %9, align 4, !tbaa !21
  br label %53

53:                                               ; preds = %48
  %54 = load i32, ptr %7, align 4, !tbaa !21
  %55 = add nsw i32 %54, 1
  store i32 %55, ptr %7, align 4, !tbaa !21
  br label %10, !llvm.loop !47

56:                                               ; preds = %29
  %57 = load i32, ptr %9, align 4, !tbaa !21
  call void @llvm.lifetime.end.p0(i64 4, ptr %9) #9
  call void @llvm.lifetime.end.p0(i64 4, ptr %8) #9
  call void @llvm.lifetime.end.p0(i64 4, ptr %7) #9
  call void @llvm.lifetime.end.p0(i64 8, ptr %6) #9
  call void @llvm.lifetime.end.p0(i64 8, ptr %5) #9
  ret i32 %57
}