; Function Attrs: nofree norecurse nosync nounwind memory(read, inaccessiblemem: none) uwtable
define i32 @Aig_TsiStateCount(ptr noundef readonly captures(none) %0, ptr noundef readonly captures(none) %1) local_unnamed_addr #10 {
  %3 = load ptr, ptr %0, align 8, !tbaa !3
  %4 = getelementptr i8, ptr %3, i64 104
  %.val = load i32, ptr %4, align 8, !tbaa !13
  %5 = icmp sgt i32 %.val, 0
  br i1 %5, label %.lr.ph, label %.critedge

.lr.ph:                                           ; preds = %2, %.lr.ph
  %.019 = phi i32 [ %22, %.lr.ph ], [ 0, %2 ]
  %.01418 = phi i32 [ %23, %.lr.ph ], [ 0, %2 ]
  %6 = shl nuw nsw i32 %.01418, 1
  %7 = lshr i32 %.01418, 4
  %8 = zext nneg i32 %7 to i64
  %9 = getelementptr inbounds nuw i32, ptr %1, i64 %8
  %10 = load i32, ptr %9, align 4, !tbaa !36
  %11 = and i32 %6, 30
  %12 = or disjoint i32 %11, 1
  %13 = lshr i32 %10, %12
  %14 = shl nuw i32 %13, 1
  %15 = and i32 %14, 2
  %16 = lshr i32 %10, %11
  %17 = and i32 %16, 1
  %18 = add nsw i32 %17, -1
  %19 = add nsw i32 %18, %15
  %20 = icmp ult i32 %19, 2
  %21 = zext i1 %20 to i32
  %22 = add nuw nsw i32 %.019, %21
  %23 = add nuw nsw i32 %.01418, 1
  %exitcond.not = icmp eq i32 %23, %.val
  br i1 %exitcond.not, label %.critedge, label %.lr.ph, !llvm.loop !42

.critedge:                                        ; preds = %.lr.ph, %2
  %.0.lcssa = phi i32 [ 0, %2 ], [ %22, %.lr.ph ]
  ret i32 %.0.lcssa
}